target datalayout = "e-m:e-p270:32:32-p271:32:32-p272:64:64-i64:64-i128:128-f80:128-n8:16:32:64-S128"
target triple = "x86_64-pc-linux-gnu"

%struct._asn1_ctx_t = type { i32, i32, i8, ptr, ptr, ptr, ptr, ptr, %struct.anon, %struct.anon.2, %struct.anon.3, ptr }
%struct.anon = type { i32, i8, i8, i8, ptr, ptr, i32, i32, ptr, ptr, ptr, %union.anon }
%union.anon = type { %struct.anon.0 }
%struct.anon.0 = type { ptr }
%struct.anon.2 = type { ptr, ptr, ptr }
%struct.anon.3 = type { i32, i8, ptr, i32, i32, ptr, ptr, ptr, %union.anon.4 }
%union.anon.4 = type { %struct.anon.5 }
%struct.anon.5 = type { ptr }
%struct._packet_info = type { ptr, ptr, i32, i32, %struct.nstime_t, %struct.nstime_t, %struct.nstime_t, i8, ptr, ptr, ptr, ptr, %struct._address, %struct._address, %struct._address, %struct._address, %struct._address, %struct._address, i32, ptr, i8, [3 x i8], %struct.anon.7, i32, i32, i32, i32, ptr, i8, ptr, ptr, i16, i16, i32, i32, i16, i32, i32, ptr, ptr, ptr, i8, i8, i16, i16, i16, i32, i16, i16, ptr, ptr, ptr, ptr, ptr, i32, i32 }
%struct.nstime_t = type { i64, i32 }
%struct._address = type { i32, i32, ptr, ptr }
%struct.anon.7 = type { i8, [3 x i8] }
%struct._channel_info_t = type { [32 x i8], ptr, %struct._unicast_addr_t, %struct._unicast_addr_t, i32, i8, i8 }
%struct._unicast_addr_t = type { %struct._address, [16 x i8], i32 }

@upcoming_channel = internal global ptr null, align 8
@ett_h245_DataType = internal global i32 0, align 4

; Function Attrs: null_pointer_is_valid sspstrong uwtable
define internal i32 @dissect_h245_DataType(ptr noundef %0, i32 noundef %1, ptr noundef %2, ptr noundef %3, i32 noundef %4) #1 {
  %6 = alloca ptr, align 8
  %7 = alloca i32, align 4
  %8 = alloca ptr, align 8
  %9 = alloca ptr, align 8
  %10 = alloca i32, align 4
  %11 = alloca i32, align 4
  store ptr %0, ptr %6, align 8
  store i32 %1, ptr %7, align 4
  store ptr %2, ptr %8, align 8
  store ptr %3, ptr %9, align 8
  store i32 %4, ptr %10, align 4
  %12 = load ptr, ptr %8, align 8
  %13 = getelementptr inbounds nuw %struct._asn1_ctx_t, ptr %12, i32 0, i32 3
  %14 = load ptr, ptr %13, align 8
  %15 = getelementptr inbounds nuw %struct._packet_info, ptr %14, i32 0, i32 54
  %16 = load i32, ptr %15, align 8
  %17 = add i32 %16, 4
  store i32 %17, ptr %15, align 8
  %18 = load ptr, ptr %8, align 8
  %19 = getelementptr inbounds nuw %struct._asn1_ctx_t, ptr %18, i32 0, i32 3
  %20 = load ptr, ptr %19, align 8
  call void @increment_dissection_depth(ptr noundef %20)
  call void @llvm.lifetime.start.p0(i64 4, ptr %11) #12
  %21 = load ptr, ptr %6, align 8
  %22 = load i32, ptr %7, align 4
  %23 = load ptr, ptr %8, align 8
  %24 = load ptr, ptr %9, align 8
  %25 = load i32, ptr %10, align 4
  %26 = load i32, ptr @ett_h245_DataType, align 4
  %27 = call i32 @dissect_per_choice(ptr noundef %21, i32 noundef %22, ptr noundef %23, ptr noundef %24, i32 noundef %25, i32 noundef %26, ptr noundef @DataType_choice, ptr noundef %11)
  store i32 %27, ptr %7, align 4
  %28 = load ptr, ptr @upcoming_channel, align 8
  %29 = icmp ne ptr %28, null
  br i1 %29, label %30, label %40

30:                                               ; preds = %5
  %31 = load i32, ptr %11, align 4
  %32 = icmp eq i32 %31, 2
  br i1 %32, label %33, label %36

33:                                               ; preds = %30
  %34 = load ptr, ptr @upcoming_channel, align 8
  %35 = getelementptr inbounds nuw %struct._channel_info_t, ptr %34, i32 0, i32 6
  store i8 1, ptr %35, align 1
  br label %39

36:                                               ; preds = %30
  %37 = load ptr, ptr @upcoming_channel, align 8
  %38 = getelementptr inbounds nuw %struct._channel_info_t, ptr %37, i32 0, i32 6
  store i8 0, ptr %38, align 1
  br label %39

39:                                               ; preds = %36, %33
  br label %40

40:                                               ; preds = %39, %5
  %41 = load ptr, ptr %8, align 8
  %42 = getelementptr inbounds nuw %struct._asn1_ctx_t, ptr %41, i32 0, i32 3
  %43 = load ptr, ptr %42, align 8
  %44 = getelementptr inbounds nuw %struct._packet_info, ptr %43, i32 0, i32 54
  %45 = load i32, ptr %44, align 8
  %46 = sub i32 %45, 4
  store i32 %46, ptr %44, align 8
  %47 = load ptr, ptr %8, align 8
  %48 = getelementptr inbounds nuw %struct._asn1_ctx_t, ptr %47, i32 0, i32 3
  %49 = load ptr, ptr %48, align 8
  call void @decrement_dissection_depth(ptr noundef %49)
  %50 = load i32, ptr %7, align 4
  call void @llvm.lifetime.end.p0(i64 4, ptr %11) #12
  ret i32 %50
}