; Function Attrs: null_pointer_is_valid sspstrong uwtable
define internal i32 @dissect_h245_DataType(ptr noundef %0, i32 noundef %1, ptr noundef %2, ptr noundef %3, i32 noundef %4) #1 {
  %6 = alloca i32, align 4
  %7 = getelementptr inbounds nuw i8, ptr %2, i64 16
  %8 = load ptr, ptr %7, align 8
  %9 = getelementptr inbounds nuw i8, ptr %8, i64 432
  %10 = load i32, ptr %9, align 8
  %11 = add i32 %10, 4
  store i32 %11, ptr %9, align 8
  %12 = load ptr, ptr %7, align 8
  tail call void @increment_dissection_depth(ptr noundef %12)
  call void @llvm.lifetime.start.p0(i64 4, ptr nonnull %6) #13
  %13 = load i32, ptr @ett_h245_DataType, align 4
  %14 = call i32 @dissect_per_choice(ptr noundef %0, i32 noundef %1, ptr noundef %2, ptr noundef %3, i32 noundef %4, i32 noundef %13, ptr noundef nonnull @DataType_choice, ptr noundef nonnull %6)
  %15 = load ptr, ptr @upcoming_channel, align 8
  %.not = icmp eq ptr %15, null
  br i1 %.not, label %19, label %.sink.split

.sink.split:                                      ; preds = %5
  %16 = load i32, ptr %6, align 4
  %17 = icmp eq i32 %16, 2
  %18 = getelementptr inbounds nuw i8, ptr %15, i64 141
  %. = zext i1 %17 to i8
  store i8 %., ptr %18, align 1
  br label %19

19:                                               ; preds = %.sink.split, %5
  %20 = load ptr, ptr %7, align 8
  %21 = getelementptr inbounds nuw i8, ptr %20, i64 432
  %22 = load i32, ptr %21, align 8
  %23 = add i32 %22, -4
  store i32 %23, ptr %21, align 8
  %24 = load ptr, ptr %7, align 8
  call void @decrement_dissection_depth(ptr noundef %24)
  call void @llvm.lifetime.end.p0(i64 4, ptr nonnull %6) #13
  ret i32 %14
}